	.file	"main.c"
	.text
.Ltext0:
	.file 0 "C:/Users/Lenovo/OneDrive/ese-coursera-course1/assessments/m2/src" "main.c"
	.def	printf;	.scl	3;	.type	32;	.endef
	.seh_proc	printf
printf:
.LFB8:
	.file 1 "c:/users/lenovo/downloads/mingw/x86_64-w64-mingw32/include/stdio.h"
	.loc 1 369 1
	pushq	%rbp
	.seh_pushreg	%rbp
.LCFI0:
	pushq	%rbx
	.seh_pushreg	%rbx
.LCFI1:
	subq	$56, %rsp
	.seh_stackalloc	56
.LCFI2:
	leaq	48(%rsp), %rbp
	.seh_setframe	%rbp, 48
.LCFI3:
	.seh_endprologue
	movq	%rcx, 32(%rbp)
	movq	%rdx, 40(%rbp)
	movq	%r8, 48(%rbp)
	movq	%r9, 56(%rbp)
	.loc 1 371 35
	leaq	40(%rbp), %rax
	movq	%rax, -16(%rbp)
	.loc 1 372 14
	movq	-16(%rbp), %rbx
	movl	$1, %ecx
	movq	__imp___acrt_iob_func(%rip), %rax
	call	*%rax
.LVL0:
	movq	%rbx, %r8
	movq	32(%rbp), %rdx
	movq	%rax, %rcx
	call	__mingw_vfprintf
	movl	%eax, -4(%rbp)
	.loc 1 374 10
	movl	-4(%rbp), %eax
	.loc 1 375 1
	addq	$56, %rsp
	popq	%rbx
.LCFI4:
	popq	%rbp
.LCFI5:
	ret
.LFE8:
	.seh_endproc
	.globl	buffer
	.bss
	.align 8
buffer:
	.space 10
	.def	__main;	.scl	2;	.type	32;	.endef
	.section .rdata,"dr"
.LC0:
	.ascii "%c\0"
.LC1:
	.ascii "\12\0"
	.text
	.globl	main
	.def	main;	.scl	2;	.type	32;	.endef
	.seh_proc	main
main:
.LFB29:
	.file 2 "main.c"
	.loc 2 30 16
	pushq	%rbp
	.seh_pushreg	%rbp
.LCFI6:
	movq	%rsp, %rbp
	.seh_setframe	%rbp, 0
.LCFI7:
	subq	$48, %rsp
	.seh_stackalloc	48
	.seh_endprologue
	.loc 2 30 16
	call	__main
	.loc 2 35 3
	movl	$10, %edx
	leaq	buffer(%rip), %rax
	movq	%rax, %rcx
	call	clear_all
	.loc 2 36 3
	leaq	8+buffer(%rip), %rax
	movl	$2, %r8d
	movl	$43, %edx
	movq	%rax, %rcx
	call	set_all
	.loc 2 37 3
	movl	$97, %r8d
	movl	$0, %edx
	leaq	buffer(%rip), %rax
	movq	%rax, %rcx
	call	set_value
	.loc 2 38 11
	movl	$9, %edx
	leaq	buffer(%rip), %rax
	movq	%rax, %rcx
	call	get_value
	movb	%al, -5(%rbp)
	.loc 2 39 31
	movzbl	-5(%rbp), %eax
	addl	$39, %eax
	.loc 2 39 3
	movsbl	%al, %eax
	movl	%eax, %r8d
	movl	$9, %edx
	leaq	buffer(%rip), %rax
	movq	%rax, %rcx
	call	set_value
	.loc 2 40 3
	movl	$55, %r8d
	movl	$3, %edx
	leaq	buffer(%rip), %rax
	movq	%rax, %rcx
	call	set_value
	.loc 2 41 3
	movl	$88, %r8d
	movl	$1, %edx
	leaq	buffer(%rip), %rax
	movq	%rax, %rcx
	call	set_value
	.loc 2 42 3
	movl	$50, %r8d
	movl	$4, %edx
	leaq	buffer(%rip), %rax
	movq	%rax, %rcx
	call	set_value
	.loc 2 43 11
	movl	$1, %edx
	leaq	buffer(%rip), %rax
	movq	%rax, %rcx
	call	get_value
	movb	%al, -5(%rbp)
	.loc 2 44 3
	movl	$121, %r8d
	movl	$2, %edx
	leaq	buffer(%rip), %rax
	movq	%rax, %rcx
	call	set_value
	.loc 2 45 31
	movzbl	-5(%rbp), %eax
	subl	$12, %eax
	.loc 2 45 3
	movsbl	%al, %eax
	movl	%eax, %r8d
	movl	$7, %edx
	leaq	buffer(%rip), %rax
	movq	%rax, %rcx
	call	set_value
	.loc 2 46 3
	movl	$95, %r8d
	movl	$5, %edx
	leaq	buffer(%rip), %rax
	movq	%rax, %rcx
	call	set_value
	.loc 2 48 11
	movl	$0, -4(%rbp)
	.loc 2 48 3
	jmp	.L4
.L5:
	.loc 2 49 5 discriminator 3
	movl	-4(%rbp), %eax
	leaq	buffer(%rip), %rdx
	movzbl	(%rax,%rdx), %eax
	movsbl	%al, %eax
	movl	%eax, %edx
	leaq	.LC0(%rip), %rax
	movq	%rax, %rcx
	call	printf
	.loc 2 48 33 discriminator 3
	addl	$1, -4(%rbp)
.L4:
	.loc 2 48 18 discriminator 1
	cmpl	$9, -4(%rbp)
	jbe	.L5
	.loc 2 51 3
	leaq	.LC1(%rip), %rax
	movq	%rax, %rcx
	call	printf
	.loc 2 52 10
	movl	$0, %eax
	.loc 2 53 1
	addq	$48, %rsp
	popq	%rbp
.LCFI8:
	ret
.LFE29:
	.seh_endproc
	.section	.debug_frame,"dr"
.Lframe0:
	.long	.LECIE0-.LSCIE0
.LSCIE0:
	.long	0xffffffff
	.byte	0x3
	.ascii "\0"
	.uleb128 0x1
	.sleb128 -8
	.uleb128 0x10
	.byte	0xc
	.uleb128 0x7
	.uleb128 0x8
	.byte	0x90
	.uleb128 0x1
	.align 8
.LECIE0:
.LSFDE0:
	.long	.LEFDE0-.LASFDE0
.LASFDE0:
	.secrel32	.Lframe0
	.quad	.LFB8
	.quad	.LFE8-.LFB8
	.byte	0x4
	.long	.LCFI0-.LFB8
	.byte	0xe
	.uleb128 0x10
	.byte	0x86
	.uleb128 0x2
	.byte	0x4
	.long	.LCFI1-.LCFI0
	.byte	0xe
	.uleb128 0x18
	.byte	0x83
	.uleb128 0x3
	.byte	0x4
	.long	.LCFI2-.LCFI1
	.byte	0xe
	.uleb128 0x50
	.byte	0x4
	.long	.LCFI3-.LCFI2
	.byte	0xc
	.uleb128 0x6
	.uleb128 0x20
	.byte	0x4
	.long	.LCFI4-.LCFI3
	.byte	0xc3
	.byte	0x4
	.long	.LCFI5-.LCFI4
	.byte	0xc6
	.byte	0x12
	.uleb128 0x7
	.sleb128 5
	.align 8
.LEFDE0:
.LSFDE2:
	.long	.LEFDE2-.LASFDE2
.LASFDE2:
	.secrel32	.Lframe0
	.quad	.LFB29
	.quad	.LFE29-.LFB29
	.byte	0x4
	.long	.LCFI6-.LFB29
	.byte	0xe
	.uleb128 0x10
	.byte	0x86
	.uleb128 0x2
	.byte	0x4
	.long	.LCFI7-.LCFI6
	.byte	0xd
	.uleb128 0x6
	.byte	0x4
	.long	.LCFI8-.LCFI7
	.byte	0xc6
	.byte	0xc
	.uleb128 0x7
	.uleb128 0x8
	.align 8
.LEFDE2:
	.text
.Letext0:
	.file 3 "c:/users/lenovo/downloads/mingw/x86_64-w64-mingw32/include/vadefs.h"
	.file 4 "../include/common/memory.h"